target datalayout = "e-m:e-p270:32:32-p271:32:32-p272:64:64-i64:64-i128:128-f80:128-n8:16:32:64-S128"
target triple = "x86_64-pc-linux-gnu"

%"class.ceres::internal::Program" = type { %"class.std::vector", %"class.std::vector.1", ptr }
%"class.std::vector" = type { %"struct.std::_Vector_base" }
%"struct.std::_Vector_base" = type { %"struct.std::_Vector_base<ceres::internal::ParameterBlock *, std::allocator<ceres::internal::ParameterBlock *>>::_Vector_impl" }
%"struct.std::_Vector_base<ceres::internal::ParameterBlock *, std::allocator<ceres::internal::ParameterBlock *>>::_Vector_impl" = type { %"struct.std::_Vector_base<ceres::internal::ParameterBlock *, std::allocator<ceres::internal::ParameterBlock *>>::_Vector_impl_data" }
%"struct.std::_Vector_base<ceres::internal::ParameterBlock *, std::allocator<ceres::internal::ParameterBlock *>>::_Vector_impl_data" = type { ptr, ptr, ptr }
%"class.std::vector.1" = type { %"struct.std::_Vector_base.2" }
%"struct.std::_Vector_base.2" = type { %"struct.std::_Vector_base<ceres::internal::ResidualBlock *, std::allocator<ceres::internal::ResidualBlock *>>::_Vector_impl" }
%"struct.std::_Vector_base<ceres::internal::ResidualBlock *, std::allocator<ceres::internal::ResidualBlock *>>::_Vector_impl" = type { %"struct.std::_Vector_base<ceres::internal::ResidualBlock *, std::allocator<ceres::internal::ResidualBlock *>>::_Vector_impl_data" }
%"struct.std::_Vector_base<ceres::internal::ResidualBlock *, std::allocator<ceres::internal::ResidualBlock *>>::_Vector_impl_data" = type { ptr, ptr, ptr }
%"class.__gnu_cxx::__normal_iterator" = type { ptr }
%"class.ceres::internal::ParameterBlock" = type { ptr, i32, i8, ptr, ptr, %"class.std::unique_ptr", i32, i32, i32, %"class.std::unique_ptr.8", %"class.std::unique_ptr", %"class.std::unique_ptr" }
%"class.std::unique_ptr.8" = type { %"struct.std::__uniq_ptr_data.9" }
%"struct.std::__uniq_ptr_data.9" = type { %"class.std::__uniq_ptr_impl.10" }
%"class.std::__uniq_ptr_impl.10" = type { %"class.std::tuple.11" }
%"class.std::tuple.11" = type { %"struct.std::_Tuple_impl.12" }
%"struct.std::_Tuple_impl.12" = type { %"struct.std::_Head_base.15" }
%"struct.std::_Head_base.15" = type { ptr }
%"class.std::unique_ptr" = type { %"struct.std::__uniq_ptr_data" }
%"struct.std::__uniq_ptr_data" = type { %"class.std::__uniq_ptr_impl" }
%"class.std::__uniq_ptr_impl" = type { %"class.std::tuple" }
%"class.std::tuple" = type { %"struct.std::_Tuple_impl" }
%"struct.std::_Tuple_impl" = type { %"struct.std::_Head_base.7" }
%"struct.std::_Head_base.7" = type { ptr }

; Function Attrs: mustprogress uwtable
define linkonce_odr hidden noundef i32 @_ZNK5ceres8internal14ParameterBlock11TangentSizeEv(ptr noundef nonnull align 8 dereferenceable(80) %0) #3 comdat align 2 {
  %2 = alloca ptr, align 8
  store ptr %0, ptr %2, align 8, !tbaa !33
  %3 = load ptr, ptr %2, align 8
  %4 = getelementptr inbounds nuw %"class.ceres::internal::ParameterBlock", ptr %3, i32 0, i32 3
  %5 = load ptr, ptr %4, align 8, !tbaa !109
  %6 = icmp eq ptr %5, null
  br i1 %6, label %7, label %10

7:                                                ; preds = %1
  %8 = getelementptr inbounds nuw %"class.ceres::internal::ParameterBlock", ptr %3, i32 0, i32 1
  %9 = load i32, ptr %8, align 8, !tbaa !61
  br label %17

10:                                               ; preds = %1
  %11 = getelementptr inbounds nuw %"class.ceres::internal::ParameterBlock", ptr %3, i32 0, i32 3
  %12 = load ptr, ptr %11, align 8, !tbaa !109
  %13 = load ptr, ptr %12, align 8, !tbaa !110
  %14 = getelementptr inbounds ptr, ptr %13, i64 3
  %15 = load ptr, ptr %14, align 8
  %16 = call noundef i32 %15(ptr noundef nonnull align 8 dereferenceable(8) %12)
  br label %17

17:                                               ; preds = %10, %7
  %18 = phi i32 [ %9, %7 ], [ %16, %10 ]
  ret i32 %18
}

; Function Attrs: mustprogress nounwind uwtable
define linkonce_odr hidden noundef nonnull align 8 dereferenceable(8) ptr @_ZNK9__gnu_cxx17__normal_iteratorIPPN5ceres8internal14ParameterBlockESt6vectorIS4_SaIS4_EEE4baseEv(ptr noundef nonnull align 8 dereferenceable(8) %0) #1 comdat align 2 {
  %2 = alloca ptr, align 8
  store ptr %0, ptr %2, align 8, !tbaa !35
  %3 = load ptr, ptr %2, align 8
  %4 = getelementptr inbounds nuw %"class.__gnu_cxx::__normal_iterator", ptr %3, i32 0, i32 0
  ret ptr %4
}

; Function Attrs: mustprogress nounwind uwtable
define linkonce_odr hidden void @_ZN9__gnu_cxx17__normal_iteratorIPPN5ceres8internal14ParameterBlockESt6vectorIS4_SaIS4_EEEC2ERKS5_(ptr noundef nonnull align 8 dereferenceable(8) %0, ptr noundef nonnull align 8 dereferenceable(8) %1) unnamed_addr #1 comdat align 2 {
  %3 = alloca ptr, align 8
  %4 = alloca ptr, align 8
  store ptr %0, ptr %3, align 8, !tbaa !35
  store ptr %1, ptr %4, align 8, !tbaa !581
  %5 = load ptr, ptr %3, align 8
  %6 = getelementptr inbounds nuw %"class.__gnu_cxx::__normal_iterator", ptr %5, i32 0, i32 0
  %7 = load ptr, ptr %4, align 8, !tbaa !581
  %8 = load ptr, ptr %7, align 8, !tbaa !37
  store ptr %8, ptr %6, align 8, !tbaa !38
  ret void
}

; Function Attrs: mustprogress nounwind uwtable
define linkonce_odr hidden noundef nonnull align 8 dereferenceable(8) ptr @_ZN9__gnu_cxx17__normal_iteratorIPPN5ceres8internal14ParameterBlockESt6vectorIS4_SaIS4_EEEppEv(ptr noundef nonnull align 8 dereferenceable(8) %0) #1 comdat align 2 {
  %2 = alloca ptr, align 8
  store ptr %0, ptr %2, align 8, !tbaa !35
  %3 = load ptr, ptr %2, align 8
  %4 = getelementptr inbounds nuw %"class.__gnu_cxx::__normal_iterator", ptr %3, i32 0, i32 0
  %5 = load ptr, ptr %4, align 8, !tbaa !38
  %6 = getelementptr inbounds nuw ptr, ptr %5, i32 1
  store ptr %6, ptr %4, align 8, !tbaa !38
  ret ptr %3
}

; Function Attrs: mustprogress nounwind uwtable
define linkonce_odr hidden noundef i32 @_ZNK5ceres8internal14ParameterBlock4SizeEv(ptr noundef nonnull align 8 dereferenceable(80) %0) #1 comdat align 2 {
  %2 = alloca ptr, align 8
  store ptr %0, ptr %2, align 8, !tbaa !33
  %3 = load ptr, ptr %2, align 8
  %4 = getelementptr inbounds nuw %"class.ceres::internal::ParameterBlock", ptr %3, i32 0, i32 1
  %5 = load i32, ptr %4, align 8, !tbaa !61
  ret i32 %5
}

; Function Attrs: mustprogress uwtable
define linkonce_odr hidden noundef zeroext i1 @_ZNK5ceres8internal14ParameterBlock10IsConstantEv(ptr noundef nonnull align 8 dereferenceable(80) %0) #3 comdat align 2 {
  %2 = alloca ptr, align 8
  store ptr %0, ptr %2, align 8, !tbaa !33
  %3 = load ptr, ptr %2, align 8
  %4 = getelementptr inbounds nuw %"class.ceres::internal::ParameterBlock", ptr %3, i32 0, i32 2
  %5 = load i8, ptr %4, align 4, !tbaa !40, !range !58, !noundef !59
  %6 = trunc i8 %5 to i1
  br i1 %6, label %10, label %7

7:                                                ; preds = %1
  %8 = call noundef i32 @_ZNK5ceres8internal14ParameterBlock11TangentSizeEv(ptr noundef nonnull align 8 dereferenceable(80) %3)
  %9 = icmp eq i32 %8, 0
  br label %10

10:                                               ; preds = %7, %1
  %11 = phi i1 [ true, %1 ], [ %9, %7 ]
  ret i1 %11
}

; Function Attrs: mustprogress nounwind uwtable
define linkonce_odr hidden noundef nonnull align 8 dereferenceable(8) ptr @_ZNK9__gnu_cxx17__normal_iteratorIPPN5ceres8internal14ParameterBlockESt6vectorIS4_SaIS4_EEEdeEv(ptr noundef nonnull align 8 dereferenceable(8) %0) #1 comdat align 2 {
  %2 = alloca ptr, align 8
  store ptr %0, ptr %2, align 8, !tbaa !35
  %3 = load ptr, ptr %2, align 8
  %4 = getelementptr inbounds nuw %"class.__gnu_cxx::__normal_iterator", ptr %3, i32 0, i32 0
  %5 = load ptr, ptr %4, align 8, !tbaa !38
  ret ptr %5
}

; Function Attrs: inlinehint mustprogress nounwind uwtable
define linkonce_odr hidden noundef zeroext i1 @_ZN9__gnu_cxxneIPPN5ceres8internal14ParameterBlockESt6vectorIS4_SaIS4_EEEEbRKNS_17__normal_iteratorIT_T0_EESE_(ptr noundef nonnull align 8 dereferenceable(8) %0, ptr noundef nonnull align 8 dereferenceable(8) %1) #7 comdat {
  %3 = alloca ptr, align 8
  %4 = alloca ptr, align 8
  store ptr %0, ptr %3, align 8, !tbaa !35
  store ptr %1, ptr %4, align 8, !tbaa !35
  %5 = load ptr, ptr %3, align 8, !tbaa !35
  %6 = call noundef nonnull align 8 dereferenceable(8) ptr @_ZNK9__gnu_cxx17__normal_iteratorIPPN5ceres8internal14ParameterBlockESt6vectorIS4_SaIS4_EEE4baseEv(ptr noundef nonnull align 8 dereferenceable(8) %5) #6
  %7 = load ptr, ptr %6, align 8, !tbaa !37
  %8 = load ptr, ptr %4, align 8, !tbaa !35
  %9 = call noundef nonnull align 8 dereferenceable(8) ptr @_ZNK9__gnu_cxx17__normal_iteratorIPPN5ceres8internal14ParameterBlockESt6vectorIS4_SaIS4_EEE4baseEv(ptr noundef nonnull align 8 dereferenceable(8) %8) #6
  %10 = load ptr, ptr %9, align 8, !tbaa !37
  %11 = icmp ne ptr %7, %10
  ret i1 %11
}

; Function Attrs: mustprogress nounwind uwtable
define linkonce_odr hidden ptr @_ZNSt6vectorIPN5ceres8internal14ParameterBlockESaIS3_EE3endEv(ptr noundef nonnull align 8 dereferenceable(24) %0) #1 comdat align 2 {
  %2 = alloca %"class.__gnu_cxx::__normal_iterator", align 8
  %3 = alloca ptr, align 8
  store ptr %0, ptr %3, align 8, !tbaa !31
  %4 = load ptr, ptr %3, align 8
  %5 = getelementptr inbounds nuw %"struct.std::_Vector_base", ptr %4, i32 0, i32 0
  %6 = getelementptr inbounds nuw %"struct.std::_Vector_base<ceres::internal::ParameterBlock *, std::allocator<ceres::internal::ParameterBlock *>>::_Vector_impl_data", ptr %5, i32 0, i32 1
  call void @_ZN9__gnu_cxx17__normal_iteratorIPPN5ceres8internal14ParameterBlockESt6vectorIS4_SaIS4_EEEC2ERKS5_(ptr noundef nonnull align 8 dereferenceable(8) %2, ptr noundef nonnull align 8 dereferenceable(8) %6) #6
  %7 = getelementptr inbounds nuw %"class.__gnu_cxx::__normal_iterator", ptr %2, i32 0, i32 0
  %8 = load ptr, ptr %7, align 8
  ret ptr %8
}

; Function Attrs: mustprogress nounwind uwtable
define linkonce_odr hidden ptr @_ZNSt6vectorIPN5ceres8internal14ParameterBlockESaIS3_EE5beginEv(ptr noundef nonnull align 8 dereferenceable(24) %0) #1 comdat align 2 {
  %2 = alloca %"class.__gnu_cxx::__normal_iterator", align 8
  %3 = alloca ptr, align 8
  store ptr %0, ptr %3, align 8, !tbaa !31
  %4 = load ptr, ptr %3, align 8
  %5 = getelementptr inbounds nuw %"struct.std::_Vector_base", ptr %4, i32 0, i32 0
  %6 = getelementptr inbounds nuw %"struct.std::_Vector_base<ceres::internal::ParameterBlock *, std::allocator<ceres::internal::ParameterBlock *>>::_Vector_impl_data", ptr %5, i32 0, i32 0
  call void @_ZN9__gnu_cxx17__normal_iteratorIPPN5ceres8internal14ParameterBlockESt6vectorIS4_SaIS4_EEEC2ERKS5_(ptr noundef nonnull align 8 dereferenceable(8) %2, ptr noundef nonnull align 8 dereferenceable(8) %6) #6
  %7 = getelementptr inbounds nuw %"class.__gnu_cxx::__normal_iterator", ptr %2, i32 0, i32 0
  %8 = load ptr, ptr %7, align 8
  ret ptr %8
}

; Function Attrs: mustprogress uwtable
define hidden noundef zeroext i1 @_ZN5ceres8internal7Program28StateVectorToParameterBlocksEPKd(ptr noundef nonnull align 8 dereferenceable(56) %0, ptr noundef %1) #3 align 2 {
  %3 = alloca i1, align 1
  %4 = alloca ptr, align 8
  %5 = alloca ptr, align 8
  %6 = alloca ptr, align 8
  %7 = alloca %"class.__gnu_cxx::__normal_iterator", align 8
  %8 = alloca %"class.__gnu_cxx::__normal_iterator", align 8
  %9 = alloca i32, align 4
  %10 = alloca ptr, align 8
  store ptr %0, ptr %4, align 8, !tbaa !14
  store ptr %1, ptr %5, align 8, !tbaa !29
  %11 = load ptr, ptr %4, align 8
  call void @llvm.lifetime.start.p0(i64 8, ptr %6) #6
  %12 = getelementptr inbounds nuw %"class.ceres::internal::Program", ptr %11, i32 0, i32 0
  store ptr %12, ptr %6, align 8, !tbaa !31
  call void @llvm.lifetime.start.p0(i64 8, ptr %7) #6
  %13 = load ptr, ptr %6, align 8, !tbaa !31
  %14 = call ptr @_ZNSt6vectorIPN5ceres8internal14ParameterBlockESaIS3_EE5beginEv(ptr noundef nonnull align 8 dereferenceable(24) %13) #6
  %15 = getelementptr inbounds nuw %"class.__gnu_cxx::__normal_iterator", ptr %7, i32 0, i32 0
  store ptr %14, ptr %15, align 8
  call void @llvm.lifetime.start.p0(i64 8, ptr %8) #6
  %16 = load ptr, ptr %6, align 8, !tbaa !31
  %17 = call ptr @_ZNSt6vectorIPN5ceres8internal14ParameterBlockESaIS3_EE3endEv(ptr noundef nonnull align 8 dereferenceable(24) %16) #6
  %18 = getelementptr inbounds nuw %"class.__gnu_cxx::__normal_iterator", ptr %8, i32 0, i32 0
  store ptr %17, ptr %18, align 8
  br label %19

19:                                               ; preds = %41, %2
  %20 = call noundef zeroext i1 @_ZN9__gnu_cxxneIPPN5ceres8internal14ParameterBlockESt6vectorIS4_SaIS4_EEEEbRKNS_17__normal_iteratorIT_T0_EESE_(ptr noundef nonnull align 8 dereferenceable(8) %7, ptr noundef nonnull align 8 dereferenceable(8) %8) #6
  br i1 %20, label %22, label %21

21:                                               ; preds = %19
  store i32 2, ptr %9, align 4
  br label %43

22:                                               ; preds = %19
  call void @llvm.lifetime.start.p0(i64 8, ptr %10) #6
  %23 = call noundef nonnull align 8 dereferenceable(8) ptr @_ZNK9__gnu_cxx17__normal_iteratorIPPN5ceres8internal14ParameterBlockESt6vectorIS4_SaIS4_EEEdeEv(ptr noundef nonnull align 8 dereferenceable(8) %7) #6
  %24 = load ptr, ptr %23, align 8, !tbaa !33
  store ptr %24, ptr %10, align 8, !tbaa !33
  %25 = load ptr, ptr %10, align 8, !tbaa !33
  %26 = call noundef zeroext i1 @_ZNK5ceres8internal14ParameterBlock10IsConstantEv(ptr noundef nonnull align 8 dereferenceable(80) %25)
  br i1 %26, label %32, label %27

27:                                               ; preds = %22
  %28 = load ptr, ptr %10, align 8, !tbaa !33
  %29 = load ptr, ptr %5, align 8, !tbaa !29
  %30 = call noundef zeroext i1 @_ZN5ceres8internal14ParameterBlock8SetStateEPKd(ptr noundef nonnull align 8 dereferenceable(80) %28, ptr noundef %29)
  br i1 %30, label %32, label %31

31:                                               ; preds = %27
  store i1 false, ptr %3, align 1
  store i32 1, ptr %9, align 4
  br label %38

32:                                               ; preds = %27, %22
  %33 = load ptr, ptr %10, align 8, !tbaa !33
  %34 = call noundef i32 @_ZNK5ceres8internal14ParameterBlock4SizeEv(ptr noundef nonnull align 8 dereferenceable(80) %33)
  %35 = load ptr, ptr %5, align 8, !tbaa !29
  %36 = sext i32 %34 to i64
  %37 = getelementptr inbounds double, ptr %35, i64 %36
  store ptr %37, ptr %5, align 8, !tbaa !29
  store i32 0, ptr %9, align 4
  br label %38

38:                                               ; preds = %32, %31
  call void @llvm.lifetime.end.p0(i64 8, ptr %10) #6
  %39 = load i32, ptr %9, align 4
  switch i32 %39, label %43 [
    i32 0, label %40
  ]

40:                                               ; preds = %38
  br label %41

41:                                               ; preds = %40
  %42 = call noundef nonnull align 8 dereferenceable(8) ptr @_ZN9__gnu_cxx17__normal_iteratorIPPN5ceres8internal14ParameterBlockESt6vectorIS4_SaIS4_EEEppEv(ptr noundef nonnull align 8 dereferenceable(8) %7) #6
  br label %19

43:                                               ; preds = %38, %21
  call void @llvm.lifetime.end.p0(i64 8, ptr %8) #6
  call void @llvm.lifetime.end.p0(i64 8, ptr %7) #6
  call void @llvm.lifetime.end.p0(i64 8, ptr %6) #6
  %44 = load i32, ptr %9, align 4
  switch i32 %44, label %48 [
    i32 2, label %45
    i32 1, label %46
  ]

45:                                               ; preds = %43
  store i1 true, ptr %3, align 1
  br label %46

46:                                               ; preds = %45, %43
  %47 = load i1, ptr %3, align 1
  ret i1 %47

48:                                               ; preds = %43
  unreachable
}