; Function Attrs: mustprogress uwtable
define hidden noundef zeroext i1 @_ZN5ceres8internal7Program28StateVectorToParameterBlocksEPKd(ptr noundef nonnull readonly align 8 captures(none) dereferenceable(56) %0, ptr noundef %1) local_unnamed_addr #6 align 2 {
  %3 = load ptr, ptr %0, align 8, !tbaa !19
  %4 = getelementptr inbounds nuw i8, ptr %0, i64 8
  %5 = load ptr, ptr %4, align 8, !tbaa !19
  %.not20 = icmp eq ptr %3, %5
  br i1 %.not20, label %._crit_edge, label %.lr.ph

.lr.ph:                                           ; preds = %2, %_ZNK5ceres8internal14ParameterBlock10IsConstantEv.exit.thread
  %.01222 = phi ptr [ %29, %_ZNK5ceres8internal14ParameterBlock10IsConstantEv.exit.thread ], [ %1, %2 ]
  %.sroa.014.021 = phi ptr [ %30, %_ZNK5ceres8internal14ParameterBlock10IsConstantEv.exit.thread ], [ %3, %2 ]
  %6 = load ptr, ptr %.sroa.014.021, align 8, !tbaa !20
  %7 = getelementptr inbounds nuw i8, ptr %6, i64 12
  %8 = load i8, ptr %7, align 4, !tbaa !22, !range !41, !noundef !42
  %9 = trunc nuw i8 %8 to i1
  br i1 %9, label %_ZNK5ceres8internal14ParameterBlock10IsConstantEv.exit.thread, label %10

10:                                               ; preds = %.lr.ph
  %11 = getelementptr inbounds nuw i8, ptr %6, i64 16
  %12 = load ptr, ptr %11, align 8, !tbaa !43
  %13 = icmp eq ptr %12, null
  br i1 %13, label %14, label %17

14:                                               ; preds = %10
  %15 = getelementptr inbounds nuw i8, ptr %6, i64 8
  %16 = load i32, ptr %15, align 8, !tbaa !44
  br label %_ZNK5ceres8internal14ParameterBlock10IsConstantEv.exit

17:                                               ; preds = %10
  %18 = load ptr, ptr %12, align 8, !tbaa !45
  %19 = getelementptr inbounds nuw i8, ptr %18, i64 24
  %20 = load ptr, ptr %19, align 8
  %21 = tail call noundef i32 %20(ptr noundef nonnull align 8 dereferenceable(8) %12)
  br label %_ZNK5ceres8internal14ParameterBlock10IsConstantEv.exit

_ZNK5ceres8internal14ParameterBlock10IsConstantEv.exit: ; preds = %14, %17
  %22 = phi i32 [ %16, %14 ], [ %21, %17 ]
  %23 = icmp eq i32 %22, 0
  br i1 %23, label %_ZNK5ceres8internal14ParameterBlock10IsConstantEv.exit.thread, label %24

24:                                               ; preds = %_ZNK5ceres8internal14ParameterBlock10IsConstantEv.exit
  %25 = tail call noundef zeroext i1 @_ZN5ceres8internal14ParameterBlock8SetStateEPKd(ptr noundef nonnull align 8 dereferenceable(80) %6, ptr noundef %.01222)
  br i1 %25, label %_ZNK5ceres8internal14ParameterBlock10IsConstantEv.exit.thread, label %._crit_edge

_ZNK5ceres8internal14ParameterBlock10IsConstantEv.exit.thread: ; preds = %.lr.ph, %_ZNK5ceres8internal14ParameterBlock10IsConstantEv.exit, %24
  %26 = getelementptr inbounds nuw i8, ptr %6, i64 8
  %27 = load i32, ptr %26, align 8, !tbaa !44
  %28 = sext i32 %27 to i64
  %29 = getelementptr inbounds double, ptr %.01222, i64 %28
  %30 = getelementptr inbounds nuw i8, ptr %.sroa.014.021, i64 8
  %.not = icmp eq ptr %30, %5
  br i1 %.not, label %._crit_edge, label %.lr.ph

._crit_edge:                                      ; preds = %_ZNK5ceres8internal14ParameterBlock10IsConstantEv.exit.thread, %24, %2
  %.not.lcssa = phi i1 [ true, %2 ], [ false, %24 ], [ true, %_ZNK5ceres8internal14ParameterBlock10IsConstantEv.exit.thread ]
  ret i1 %.not.lcssa
}